target datalayout = "e-m:e-p270:32:32-p271:32:32-p272:64:64-i64:64-i128:128-f80:128-n8:16:32:64-S128"
target triple = "x86_64-unknown-linux-gnu"

%"class.v8::Local" = type { %"class.v8::LocalBase" }
%"class.v8::LocalBase" = type { %"class.v8::IndirectHandleBase" }
%"class.v8::IndirectHandleBase" = type { ptr }
%"class.node::StreamResource" = type { ptr, ptr, i64, i64 }
%"class.v8::Local.255" = type { %"class.v8::LocalBase.256" }
%"class.v8::LocalBase.256" = type { %"class.v8::IndirectHandleBase" }
%struct.uv_buf_t = type { ptr, i64 }
%"class.node::DebugSealHandleScope" = type { i8 }

; Function Attrs: mustprogress nounwind uwtable
define linkonce_odr dso_local void @_ZN4node20DebugSealHandleScopeC2EPN2v87IsolateE(ptr noundef nonnull align 1 dereferenceable(1) %this, ptr noundef %isolate) unnamed_addr #4 comdat align 2 {
entry:
  %this.addr = alloca ptr, align 8
  %isolate.addr = alloca ptr, align 8
  store ptr %this, ptr %this.addr, align 8
  store ptr %isolate, ptr %isolate.addr, align 8
  ret void
}

; Function Attrs: mustprogress nounwind uwtable
define linkonce_odr dso_local void @_ZN4node14StreamResource8EmitReadElRK8uv_buf_t(ptr noundef nonnull align 8 dereferenceable(32) %this, i64 noundef %nread, ptr noundef nonnull align 8 dereferenceable(16) %buf) #4 comdat align 2 {
entry:
  %this.addr = alloca ptr, align 8
  %nread.addr = alloca i64, align 8
  %buf.addr = alloca ptr, align 8
  %seal_handle_scope = alloca %"class.node::DebugSealHandleScope", align 1
  store ptr %this, ptr %this.addr, align 8
  store i64 %nread, ptr %nread.addr, align 8
  store ptr %buf, ptr %buf.addr, align 8
  %this1 = load ptr, ptr %this.addr, align 8
  call void @_ZN4node20DebugSealHandleScopeC2EPN2v87IsolateE(ptr noundef nonnull align 1 dereferenceable(1) %seal_handle_scope, ptr noundef null)
  %0 = load i64, ptr %nread.addr, align 8
  %cmp = icmp sgt i64 %0, 0
  br i1 %cmp, label %if.then, label %if.end

if.then:                                          ; preds = %entry
  %1 = load i64, ptr %nread.addr, align 8
  %bytes_read_ = getelementptr inbounds %"class.node::StreamResource", ptr %this1, i32 0, i32 2
  %2 = load i64, ptr %bytes_read_, align 8
  %add = add i64 %2, %1
  store i64 %add, ptr %bytes_read_, align 8
  br label %if.end

if.end:                                           ; preds = %if.then, %entry
  %listener_ = getelementptr inbounds %"class.node::StreamResource", ptr %this1, i32 0, i32 1
  %3 = load ptr, ptr %listener_, align 8
  %4 = load i64, ptr %nread.addr, align 8
  %5 = load ptr, ptr %buf.addr, align 8
  %vtable = load ptr, ptr %3, align 8
  %vfn = getelementptr inbounds ptr, ptr %vtable, i64 3
  %6 = load ptr, ptr %vfn, align 8
  call void %6(ptr noundef nonnull align 8 dereferenceable(24) %3, i64 noundef %4, ptr noundef nonnull align 8 dereferenceable(16) %5)
  ret void
}

; Function Attrs: mustprogress nounwind uwtable
define linkonce_odr dso_local noundef ptr @_ZN4node10BaseObject12FromJSObjectEN2v85LocalINS1_5ValueEEE(ptr %value.coerce) #4 comdat align 2 {
entry:
  %heap_object_ptr.addr.i37 = alloca i64, align 8
  %offset.addr.i38 = alloca i32, align 4
  %addr.i39 = alloca i64, align 8
  %heap_object_ptr.addr.i31 = alloca i64, align 8
  %offset.addr.i32 = alloca i32, align 4
  %addr.i33 = alloca i64, align 8
  %heap_object_ptr.addr.i26 = alloca i64, align 8
  %offset.addr.i27 = alloca i32, align 4
  %addr.i = alloca i64, align 8
  %heap_object_ptr.addr.i23 = alloca i64, align 8
  %offset.addr.i24 = alloca i32, align 4
  %isolate.addr.i = alloca ptr, align 8
  %heap_object_ptr.addr.i = alloca i64, align 8
  %offset.addr.i = alloca i32, align 4
  %obj.addr.i21 = alloca i64, align 8
  %instance_type.addr.i = alloca i32, align 4
  %obj.addr.i = alloca i64, align 8
  %map.i = alloca i64, align 8
  %this.addr.i19 = alloca ptr, align 8
  %other.addr.i = alloca ptr, align 8
  %this.addr.i.i = alloca ptr, align 8
  %other.addr.i.i = alloca ptr, align 8
  %retval.i18 = alloca %"class.v8::Local", align 8
  %that.i = alloca %"class.v8::Local.255", align 8
  %ref.tmp.i = alloca %"class.v8::LocalBase", align 8
  %value.addr.i.i = alloca ptr, align 8
  %retval.i15 = alloca ptr, align 8
  %this.addr.i16 = alloca ptr, align 8
  %index.addr.i = alloca i32, align 4
  %obj.i = alloca i64, align 8
  %instance_type.i = alloca i32, align 4
  %offset.i = alloca i32, align 4
  %isolate.i = alloca ptr, align 8
  %value.i = alloca i64, align 8
  %retval.i = alloca %"class.v8::Local", align 8
  %this.addr.i13 = alloca ptr, align 8
  %agg.tmp.i = alloca %"class.v8::Local.255", align 8
  %this.addr.i11 = alloca ptr, align 8
  %slot.addr.i = alloca ptr, align 8
  %this.addr.i8 = alloca ptr, align 8
  %this.addr.i = alloca ptr, align 8
  %value = alloca %"class.v8::Local.255", align 8
  %obj = alloca %"class.v8::Local", align 8
  %coerce.dive = getelementptr inbounds %"class.v8::Local.255", ptr %value, i32 0, i32 0
  %coerce.dive1 = getelementptr inbounds %"class.v8::LocalBase.256", ptr %coerce.dive, i32 0, i32 0
  %coerce.dive2 = getelementptr inbounds %"class.v8::IndirectHandleBase", ptr %coerce.dive1, i32 0, i32 0
  store ptr %value.coerce, ptr %coerce.dive2, align 8
  store ptr %value, ptr %this.addr.i13, align 8
  %this1.i14 = load ptr, ptr %this.addr.i13, align 8
  call void @llvm.memcpy.p0.p0.i64(ptr align 8 %agg.tmp.i, ptr align 8 %this1.i14, i64 8, i1 false)
  %0 = load ptr, ptr %agg.tmp.i, align 8
  store ptr %0, ptr %that.i, align 8
  store ptr %ref.tmp.i, ptr %this.addr.i19, align 8
  store ptr %that.i, ptr %other.addr.i, align 8
  %this1.i20 = load ptr, ptr %this.addr.i19, align 8
  %1 = load ptr, ptr %other.addr.i, align 8
  call void @llvm.memcpy.p0.p0.i64(ptr align 8 %this1.i20, ptr align 8 %1, i64 8, i1 false)
  store ptr %retval.i18, ptr %this.addr.i.i, align 8
  store ptr %ref.tmp.i, ptr %other.addr.i.i, align 8
  %this1.i.i = load ptr, ptr %this.addr.i.i, align 8
  %2 = load ptr, ptr %other.addr.i.i, align 8
  call void @llvm.memcpy.p0.p0.i64(ptr align 8 %this1.i.i, ptr align 8 %2, i64 8, i1 false)
  %3 = load ptr, ptr %retval.i18, align 8
  store ptr %3, ptr %retval.i, align 8
  %4 = load ptr, ptr %retval.i, align 8
  %coerce.dive3 = getelementptr inbounds %"class.v8::Local", ptr %obj, i32 0, i32 0
  %coerce.dive4 = getelementptr inbounds %"class.v8::LocalBase", ptr %coerce.dive3, i32 0, i32 0
  %coerce.dive5 = getelementptr inbounds %"class.v8::IndirectHandleBase", ptr %coerce.dive4, i32 0, i32 0
  store ptr %4, ptr %coerce.dive5, align 8
  store ptr %obj, ptr %this.addr.i, align 8
  %this1.i = load ptr, ptr %this.addr.i, align 8
  store ptr %this1.i, ptr %this.addr.i8, align 8
  %this1.i9 = load ptr, ptr %this.addr.i8, align 8
  store ptr %this1.i9, ptr %this.addr.i11, align 8
  %this1.i12 = load ptr, ptr %this.addr.i11, align 8
  %5 = load ptr, ptr %this1.i12, align 8
  store ptr %5, ptr %slot.addr.i, align 8
  %6 = load ptr, ptr %slot.addr.i, align 8
  store ptr %6, ptr %this.addr.i16, align 8
  store i32 1, ptr %index.addr.i, align 4
  %this1.i17 = load ptr, ptr %this.addr.i16, align 8
  store ptr %this1.i17, ptr %value.addr.i.i, align 8
  %7 = load ptr, ptr %value.addr.i.i, align 8
  %8 = load i64, ptr %7, align 8
  store i64 %8, ptr %obj.i, align 8
  %9 = load i64, ptr %obj.i, align 8
  store i64 %9, ptr %obj.addr.i, align 8
  %10 = load i64, ptr %obj.addr.i, align 8
  store i64 %10, ptr %heap_object_ptr.addr.i23, align 8
  store i32 0, ptr %offset.addr.i24, align 4
  %11 = load i64, ptr %heap_object_ptr.addr.i23, align 8
  %12 = load i32, ptr %offset.addr.i24, align 4
  store i64 %11, ptr %heap_object_ptr.addr.i31, align 8
  store i32 %12, ptr %offset.addr.i32, align 4
  %13 = load i64, ptr %heap_object_ptr.addr.i31, align 8
  %14 = load i32, ptr %offset.addr.i32, align 4
  %conv.i34 = sext i32 %14 to i64
  %add.i35 = add i64 %13, %conv.i34
  %sub.i36 = sub i64 %add.i35, 1
  store i64 %sub.i36, ptr %addr.i33, align 8
  %15 = load i64, ptr %addr.i33, align 8
  %16 = inttoptr i64 %15 to ptr
  %17 = load i64, ptr %16, align 8
  store i64 %17, ptr %map.i, align 8
  %18 = load i64, ptr %map.i, align 8
  store i64 %18, ptr %heap_object_ptr.addr.i26, align 8
  store i32 12, ptr %offset.addr.i27, align 4
  %19 = load i64, ptr %heap_object_ptr.addr.i26, align 8
  %20 = load i32, ptr %offset.addr.i27, align 4
  %conv.i28 = sext i32 %20 to i64
  %add.i29 = add i64 %19, %conv.i28
  %sub.i30 = sub i64 %add.i29, 1
  store i64 %sub.i30, ptr %addr.i, align 8
  %21 = load i64, ptr %addr.i, align 8
  %22 = inttoptr i64 %21 to ptr
  %23 = load i16, ptr %22, align 2
  %conv.i = zext i16 %23 to i32
  store i32 %conv.i, ptr %instance_type.i, align 4
  %24 = load i32, ptr %instance_type.i, align 4
  store i32 %24, ptr %instance_type.addr.i, align 4
  %25 = load i32, ptr %instance_type.addr.i, align 4
  %cmp.i = icmp eq i32 %25, 1040
  br i1 %cmp.i, label %_ZN2v88internal9Internals20CanHaveInternalFieldEi.exit, label %lor.rhs.i

lor.rhs.i:                                        ; preds = %entry
  %26 = load i32, ptr %instance_type.addr.i, align 4
  %sub.i = sub i32 %26, 1057
  %cmp1.i = icmp ule i32 %sub.i, 1001
  br label %_ZN2v88internal9Internals20CanHaveInternalFieldEi.exit

_ZN2v88internal9Internals20CanHaveInternalFieldEi.exit: ; preds = %lor.rhs.i, %entry
  %27 = phi i1 [ true, %entry ], [ %cmp1.i, %lor.rhs.i ]
  br i1 %27, label %if.then.i, label %if.end.i

if.then.i:                                        ; preds = %_ZN2v88internal9Internals20CanHaveInternalFieldEi.exit
  %28 = load i32, ptr %index.addr.i, align 4
  %mul.i = mul nsw i32 8, %28
  %add.i = add nsw i32 24, %mul.i
  store i32 %add.i, ptr %offset.i, align 4
  %29 = load i64, ptr %obj.i, align 8
  store i64 %29, ptr %obj.addr.i21, align 8
  store ptr null, ptr %isolate.i, align 8
  %30 = load ptr, ptr %isolate.i, align 8
  %31 = load i64, ptr %obj.i, align 8
  %32 = load i32, ptr %offset.i, align 4
  store ptr %30, ptr %isolate.addr.i, align 8
  store i64 %31, ptr %heap_object_ptr.addr.i, align 8
  store i32 %32, ptr %offset.addr.i, align 4
  %33 = load i64, ptr %heap_object_ptr.addr.i, align 8
  %34 = load i32, ptr %offset.addr.i, align 4
  store i64 %33, ptr %heap_object_ptr.addr.i37, align 8
  store i32 %34, ptr %offset.addr.i38, align 4
  %35 = load i64, ptr %heap_object_ptr.addr.i37, align 8
  %36 = load i32, ptr %offset.addr.i38, align 4
  %conv.i40 = sext i32 %36 to i64
  %add.i41 = add i64 %35, %conv.i40
  %sub.i42 = sub i64 %add.i41, 1
  store i64 %sub.i42, ptr %addr.i39, align 8
  %37 = load i64, ptr %addr.i39, align 8
  %38 = inttoptr i64 %37 to ptr
  %39 = load i64, ptr %38, align 8
  store i64 %39, ptr %value.i, align 8
  %40 = load i64, ptr %value.i, align 8
  %41 = inttoptr i64 %40 to ptr
  store ptr %41, ptr %retval.i15, align 8
  br label %_ZN2v86Object34GetAlignedPointerFromInternalFieldEi.exit

if.end.i:                                         ; preds = %_ZN2v88internal9Internals20CanHaveInternalFieldEi.exit
  %42 = load i32, ptr %index.addr.i, align 4
  %call7.i = call noundef ptr @_ZN2v86Object38SlowGetAlignedPointerFromInternalFieldEi(ptr noundef nonnull align 1 dereferenceable(1) %this1.i17, i32 noundef %42) #3
  store ptr %call7.i, ptr %retval.i15, align 8
  br label %_ZN2v86Object34GetAlignedPointerFromInternalFieldEi.exit

_ZN2v86Object34GetAlignedPointerFromInternalFieldEi.exit: ; preds = %if.end.i, %if.then.i
  %43 = load ptr, ptr %retval.i15, align 8
  ret ptr %43
}

; Function Attrs: mustprogress nounwind uwtable
define dso_local void @_ZN4node8JSStream7EmitEOFERKN2v820FunctionCallbackInfoINS1_5ValueEEE(ptr noundef nonnull align 8 dereferenceable(20) %args) #4 align 2 {
entry:
  %this.addr.i2.i = alloca ptr, align 8
  %location.addr.i3.i = alloca ptr, align 8
  %this.addr.i.i17 = alloca ptr, align 8
  %location.addr.i.i = alloca ptr, align 8
  %retval.i18 = alloca %"class.v8::LocalBase", align 8
  %slot.addr.i19 = alloca ptr, align 8
  %this.addr.i.i = alloca ptr, align 8
  %other.addr.i.i = alloca ptr, align 8
  %retval.i15 = alloca %"class.v8::Local", align 8
  %slot.addr.i = alloca ptr, align 8
  %ref.tmp.i = alloca %"class.v8::LocalBase", align 8
  %this.addr.i13 = alloca ptr, align 8
  %other.addr.i = alloca ptr, align 8
  %retval.i = alloca %"class.v8::Local", align 8
  %this.addr.i12 = alloca ptr, align 8
  %that.i = alloca %"class.v8::Local", align 8
  %this.addr.i = alloca ptr, align 8
  %args.addr = alloca ptr, align 8
  %wrap = alloca ptr, align 8
  %agg.tmp = alloca %"class.v8::Local.255", align 8
  %agg.tmp1 = alloca %"class.v8::Local", align 8
  %ref.tmp = alloca %struct.uv_buf_t, align 8
  store ptr %args, ptr %args.addr, align 8
  br label %do.body

do.body:                                          ; preds = %entry
  %0 = load ptr, ptr %args.addr, align 8
  store ptr %0, ptr %this.addr.i12, align 8
  %this1.i = load ptr, ptr %this.addr.i12, align 8
  %1 = load ptr, ptr %this1.i, align 8
  store ptr %1, ptr %slot.addr.i, align 8
  %2 = load ptr, ptr %slot.addr.i, align 8
  store ptr %2, ptr %slot.addr.i19, align 8
  %3 = load ptr, ptr %slot.addr.i19, align 8
  store ptr %retval.i18, ptr %this.addr.i.i17, align 8
  store ptr %3, ptr %location.addr.i.i, align 8
  %this1.i.i20 = load ptr, ptr %this.addr.i.i17, align 8
  %4 = load ptr, ptr %location.addr.i.i, align 8
  store ptr %this1.i.i20, ptr %this.addr.i2.i, align 8
  store ptr %4, ptr %location.addr.i3.i, align 8
  %this1.i4.i = load ptr, ptr %this.addr.i2.i, align 8
  %5 = load ptr, ptr %location.addr.i3.i, align 8
  store ptr %5, ptr %this1.i4.i, align 8
  %6 = load ptr, ptr %retval.i18, align 8
  store ptr %6, ptr %ref.tmp.i, align 8
  store ptr %retval.i15, ptr %this.addr.i.i, align 8
  store ptr %ref.tmp.i, ptr %other.addr.i.i, align 8
  %this1.i.i = load ptr, ptr %this.addr.i.i, align 8
  %7 = load ptr, ptr %other.addr.i.i, align 8
  call void @llvm.memcpy.p0.p0.i64(ptr align 8 %this1.i.i, ptr align 8 %7, i64 8, i1 false)
  %8 = load ptr, ptr %retval.i15, align 8
  store ptr %8, ptr %retval.i, align 8
  %9 = load ptr, ptr %retval.i, align 8
  %coerce.dive = getelementptr inbounds %"class.v8::Local", ptr %agg.tmp1, i32 0, i32 0
  %coerce.dive2 = getelementptr inbounds %"class.v8::LocalBase", ptr %coerce.dive, i32 0, i32 0
  %coerce.dive3 = getelementptr inbounds %"class.v8::IndirectHandleBase", ptr %coerce.dive2, i32 0, i32 0
  store ptr %9, ptr %coerce.dive3, align 8
  %coerce.dive4 = getelementptr inbounds %"class.v8::Local", ptr %agg.tmp1, i32 0, i32 0
  %coerce.dive5 = getelementptr inbounds %"class.v8::LocalBase", ptr %coerce.dive4, i32 0, i32 0
  %coerce.dive6 = getelementptr inbounds %"class.v8::IndirectHandleBase", ptr %coerce.dive5, i32 0, i32 0
  %10 = load ptr, ptr %coerce.dive6, align 8
  store ptr %10, ptr %that.i, align 8
  store ptr %agg.tmp, ptr %this.addr.i, align 8
  %this3.i = load ptr, ptr %this.addr.i, align 8
  store ptr %this3.i, ptr %this.addr.i13, align 8
  store ptr %that.i, ptr %other.addr.i, align 8
  %this1.i14 = load ptr, ptr %this.addr.i13, align 8
  %11 = load ptr, ptr %other.addr.i, align 8
  call void @llvm.memcpy.p0.p0.i64(ptr align 8 %this1.i14, ptr align 8 %11, i64 8, i1 false)
  %coerce.dive7 = getelementptr inbounds %"class.v8::Local.255", ptr %agg.tmp, i32 0, i32 0
  %coerce.dive8 = getelementptr inbounds %"class.v8::LocalBase.256", ptr %coerce.dive7, i32 0, i32 0
  %coerce.dive9 = getelementptr inbounds %"class.v8::IndirectHandleBase", ptr %coerce.dive8, i32 0, i32 0
  %12 = load ptr, ptr %coerce.dive9, align 8
  %call10 = call noundef ptr @_ZN4node10BaseObject12FromJSObjectEN2v85LocalINS1_5ValueEEE(ptr %12)
  store ptr %call10, ptr %wrap, align 8
  %13 = load ptr, ptr %wrap, align 8
  %cmp = icmp eq ptr %13, null
  br i1 %cmp, label %if.then, label %if.end

if.then:                                          ; preds = %do.body
  br label %return

if.end:                                           ; preds = %do.body
  br label %do.end

do.end:                                           ; preds = %if.end
  %14 = load ptr, ptr %wrap, align 8
  %add.ptr = getelementptr inbounds i8, ptr %14, i64 56
  %call11 = call { ptr, i64 } @uv_buf_init(ptr noundef null, i32 noundef 0)
  %15 = getelementptr inbounds { ptr, i64 }, ptr %ref.tmp, i32 0, i32 0
  %16 = extractvalue { ptr, i64 } %call11, 0
  store ptr %16, ptr %15, align 8
  %17 = getelementptr inbounds { ptr, i64 }, ptr %ref.tmp, i32 0, i32 1
  %18 = extractvalue { ptr, i64 } %call11, 1
  store i64 %18, ptr %17, align 8
  call void @_ZN4node14StreamResource8EmitReadElRK8uv_buf_t(ptr noundef nonnull align 8 dereferenceable(32) %add.ptr, i64 noundef -4095, ptr noundef nonnull align 8 dereferenceable(16) %ref.tmp)
  br label %return

return:                                           ; preds = %do.end, %if.then
  ret void
}