; Function Attrs: mustprogress nounwind uwtable
define dso_local void @_ZN4node8JSStream7EmitEOFERKN2v820FunctionCallbackInfoINS1_5ValueEEE(ptr nocapture noundef nonnull readonly align 8 dereferenceable(20) %args) #3 align 2 {
entry:
  %ref.tmp = alloca %struct.uv_buf_t, align 8
  %0 = load ptr, ptr %args, align 8
  %1 = load i64, ptr %0, align 8
  %sub.i36.i = add i64 %1, -1
  %2 = inttoptr i64 %sub.i36.i to ptr
  %3 = load i64, ptr %2, align 8
  %sub.i30.i = add i64 %3, 11
  %4 = inttoptr i64 %sub.i30.i to ptr
  %5 = load i16, ptr %4, align 2
  %conv.i.i = zext i16 %5 to i32
  %cmp.i.i = icmp eq i16 %5, 1040
  %sub.i.i = add nsw i32 %conv.i.i, -1057
  %cmp1.i.i = icmp ult i32 %sub.i.i, 1002
  %6 = select i1 %cmp.i.i, i1 true, i1 %cmp1.i.i
  br i1 %6, label %if.then.i.i, label %if.end.i.i

if.then.i.i:                                      ; preds = %entry
  %sub.i42.i = add i64 %1, 31
  %7 = inttoptr i64 %sub.i42.i to ptr
  %8 = load i64, ptr %7, align 8
  %9 = inttoptr i64 %8 to ptr
  br label %_ZN4node10BaseObject12FromJSObjectEN2v85LocalINS1_5ValueEEE.exit

if.end.i.i:                                       ; preds = %entry
  %call7.i.i = tail call noundef ptr @_ZN2v86Object38SlowGetAlignedPointerFromInternalFieldEi(ptr noundef nonnull align 1 dereferenceable(1) %0, i32 noundef 1) #14
  br label %_ZN4node10BaseObject12FromJSObjectEN2v85LocalINS1_5ValueEEE.exit

_ZN4node10BaseObject12FromJSObjectEN2v85LocalINS1_5ValueEEE.exit: ; preds = %if.then.i.i, %if.end.i.i
  %retval.i15.0.i = phi ptr [ %9, %if.then.i.i ], [ %call7.i.i, %if.end.i.i ]
  %cmp = icmp eq ptr %retval.i15.0.i, null
  br i1 %cmp, label %return, label %do.end

do.end:                                           ; preds = %_ZN4node10BaseObject12FromJSObjectEN2v85LocalINS1_5ValueEEE.exit
  %call11 = tail call { ptr, i64 } @uv_buf_init(ptr noundef null, i32 noundef 0) #14
  %10 = extractvalue { ptr, i64 } %call11, 0
  store ptr %10, ptr %ref.tmp, align 8
  %11 = getelementptr inbounds i8, ptr %ref.tmp, i64 8
  %12 = extractvalue { ptr, i64 } %call11, 1
  store i64 %12, ptr %11, align 8
  %listener_.i = getelementptr inbounds i8, ptr %retval.i15.0.i, i64 64
  %13 = load ptr, ptr %listener_.i, align 8
  %vtable.i = load ptr, ptr %13, align 8
  %vfn.i = getelementptr inbounds i8, ptr %vtable.i, i64 24
  %14 = load ptr, ptr %vfn.i, align 8
  call void %14(ptr noundef nonnull align 8 dereferenceable(24) %13, i64 noundef -4095, ptr noundef nonnull align 8 dereferenceable(16) %ref.tmp) #14
  br label %return

return:                                           ; preds = %_ZN4node10BaseObject12FromJSObjectEN2v85LocalINS1_5ValueEEE.exit, %do.end
  ret void
}